; Function Attrs: mustprogress nounwind uwtable
define hidden noundef nonnull align 8 dereferenceable(20) ptr @_ZN4LIEF14ChecksumStream5writeEPKhm(ptr noundef nonnull returned align 8 dereferenceable(20) %0, ptr noundef %1, i64 noundef %2) local_unnamed_addr #0 align 2 {
  %4 = alloca %"class.LIEF::SpanStream", align 8
  call void @llvm.lifetime.start.p0(i64 40, ptr nonnull %4) #11
  %5 = getelementptr inbounds nuw i8, ptr %4, i64 8
  store i64 0, ptr %5, align 8, !tbaa !3
  %6 = getelementptr inbounds nuw i8, ptr %4, i64 16
  store i8 0, ptr %6, align 8, !tbaa !10
  %7 = getelementptr inbounds nuw i8, ptr %4, i64 20
  store i32 3, ptr %7, align 4, !tbaa !11
  store ptr getelementptr inbounds nuw inrange(-16, 104) (i8, ptr @_ZTVN4LIEF10SpanStreamE, i64 16), ptr %4, align 8, !tbaa !12
  %8 = getelementptr inbounds nuw i8, ptr %4, i64 24
  store ptr %1, ptr %8, align 8, !tbaa !14
  %9 = getelementptr inbounds nuw i8, ptr %4, i64 32
  store i64 %2, ptr %9, align 8, !tbaa !18
  %10 = call noundef nonnull align 8 dereferenceable(20) ptr @_ZN4LIEF14ChecksumStream5writeERNS_12BinaryStreamE(ptr noundef nonnull align 8 dereferenceable(20) %0, ptr noundef nonnull align 8 dereferenceable(24) %4)
  call void @llvm.lifetime.end.p0(i64 40, ptr nonnull %4) #11
  ret ptr %0
}